; Function Attrs: mustprogress uwtable
define noundef ptr @lean_sharecommon_quick(ptr noundef %0) local_unnamed_addr #0 personality ptr @__gxx_personality_v0 {
  %2 = alloca %"class.lean::sharecommon_quick_fn", align 8
  call void @llvm.lifetime.start.p0(i64 120, ptr nonnull %2) #20
  %3 = getelementptr inbounds nuw i8, ptr %2, i64 48
  store ptr %3, ptr %2, align 8, !tbaa !45
  %4 = getelementptr inbounds nuw i8, ptr %2, i64 8
  store i64 1, ptr %4, align 8, !tbaa !44
  %5 = getelementptr inbounds nuw i8, ptr %2, i64 16
  %6 = getelementptr inbounds nuw i8, ptr %2, i64 32
  call void @llvm.memset.p0.i64(ptr noundef nonnull align 8 dereferenceable(16) %5, i8 0, i64 16, i1 false)
  store float 1.000000e+00, ptr %6, align 8, !tbaa !60
  %7 = getelementptr inbounds nuw i8, ptr %2, i64 40
  call void @llvm.memset.p0.i64(ptr noundef nonnull align 8 dereferenceable(16) %7, i8 0, i64 16, i1 false)
  %8 = getelementptr inbounds nuw i8, ptr %2, i64 56
  %9 = getelementptr inbounds nuw i8, ptr %2, i64 104
  store ptr %9, ptr %8, align 8, !tbaa !61
  %10 = getelementptr inbounds nuw i8, ptr %2, i64 64
  store i64 1, ptr %10, align 8, !tbaa !62
  %11 = getelementptr inbounds nuw i8, ptr %2, i64 72
  %12 = getelementptr inbounds nuw i8, ptr %2, i64 88
  call void @llvm.memset.p0.i64(ptr noundef nonnull align 8 dereferenceable(16) %11, i8 0, i64 16, i1 false)
  store float 1.000000e+00, ptr %12, align 8, !tbaa !60
  %13 = getelementptr inbounds nuw i8, ptr %2, i64 96
  call void @llvm.memset.p0.i64(ptr noundef nonnull align 8 dereferenceable(17) %13, i8 0, i64 17, i1 false)
  %14 = invoke noundef ptr @_ZN4lean20sharecommon_quick_fn5visitEP11lean_object(ptr noundef nonnull align 8 dereferenceable(113) %2, ptr noundef %0)
          to label %_ZN4lean20sharecommon_quick_fnclEP11lean_object.exit unwind label %31

_ZN4lean20sharecommon_quick_fnclEP11lean_object.exit: ; preds = %1
  %15 = load ptr, ptr %11, align 8, !tbaa !63
  %.not5.i.i.i.i.i = icmp eq ptr %15, null
  br i1 %.not5.i.i.i.i.i, label %_ZNSt10_HashtableIP11lean_objectS1_16mi_stl_allocatorIS1_ENSt8__detail9_IdentityEN4lean20sharecommon_quick_fn6set_eqENS7_8set_hashENS4_18_Mod_range_hashingENS4_20_Default_ranged_hashENS4_20_Prime_rehash_policyENS4_17_Hashtable_traitsILb1ELb1ELb1EEEE5clearEv.exit.i.i.i, label %.lr.ph.i.i.i.i.i

.lr.ph.i.i.i.i.i:                                 ; preds = %_ZN4lean20sharecommon_quick_fnclEP11lean_object.exit, %.lr.ph.i.i.i.i.i
  %.06.i.i.i.i.i = phi ptr [ %16, %.lr.ph.i.i.i.i.i ], [ %15, %_ZN4lean20sharecommon_quick_fnclEP11lean_object.exit ]
  %16 = load ptr, ptr %.06.i.i.i.i.i, align 8, !tbaa !42
  call void @mi_free(ptr noundef nonnull %.06.i.i.i.i.i) #20
  %.not.i.i.i.i.i = icmp eq ptr %16, null
  br i1 %.not.i.i.i.i.i, label %_ZNSt10_HashtableIP11lean_objectS1_16mi_stl_allocatorIS1_ENSt8__detail9_IdentityEN4lean20sharecommon_quick_fn6set_eqENS7_8set_hashENS4_18_Mod_range_hashingENS4_20_Default_ranged_hashENS4_20_Prime_rehash_policyENS4_17_Hashtable_traitsILb1ELb1ELb1EEEE5clearEv.exit.i.i.i, label %.lr.ph.i.i.i.i.i, !llvm.loop !64

_ZNSt10_HashtableIP11lean_objectS1_16mi_stl_allocatorIS1_ENSt8__detail9_IdentityEN4lean20sharecommon_quick_fn6set_eqENS7_8set_hashENS4_18_Mod_range_hashingENS4_20_Default_ranged_hashENS4_20_Prime_rehash_policyENS4_17_Hashtable_traitsILb1ELb1ELb1EEEE5clearEv.exit.i.i.i: ; preds = %.lr.ph.i.i.i.i.i, %_ZN4lean20sharecommon_quick_fnclEP11lean_object.exit
  %17 = load ptr, ptr %8, align 8, !tbaa !61
  %18 = load i64, ptr %10, align 8, !tbaa !62
  %19 = shl i64 %18, 3
  call void @llvm.memset.p0.i64(ptr align 8 %17, i8 0, i64 %19, i1 false)
  call void @llvm.memset.p0.i64(ptr noundef nonnull align 8 dereferenceable(16) %11, i8 0, i64 16, i1 false)
  %20 = load ptr, ptr %8, align 8, !tbaa !61
  %21 = icmp eq ptr %20, %9
  br i1 %21, label %_ZNSt13unordered_setIP11lean_objectN4lean20sharecommon_quick_fn8set_hashENS3_6set_eqE16mi_stl_allocatorIS1_EED2Ev.exit.i, label %22

22:                                               ; preds = %_ZNSt10_HashtableIP11lean_objectS1_16mi_stl_allocatorIS1_ENSt8__detail9_IdentityEN4lean20sharecommon_quick_fn6set_eqENS7_8set_hashENS4_18_Mod_range_hashingENS4_20_Default_ranged_hashENS4_20_Prime_rehash_policyENS4_17_Hashtable_traitsILb1ELb1ELb1EEEE5clearEv.exit.i.i.i
  call void @mi_free(ptr noundef %20) #20
  br label %_ZNSt13unordered_setIP11lean_objectN4lean20sharecommon_quick_fn8set_hashENS3_6set_eqE16mi_stl_allocatorIS1_EED2Ev.exit.i

_ZNSt13unordered_setIP11lean_objectN4lean20sharecommon_quick_fn8set_hashENS3_6set_eqE16mi_stl_allocatorIS1_EED2Ev.exit.i: ; preds = %22, %_ZNSt10_HashtableIP11lean_objectS1_16mi_stl_allocatorIS1_ENSt8__detail9_IdentityEN4lean20sharecommon_quick_fn6set_eqENS7_8set_hashENS4_18_Mod_range_hashingENS4_20_Default_ranged_hashENS4_20_Prime_rehash_policyENS4_17_Hashtable_traitsILb1ELb1ELb1EEEE5clearEv.exit.i.i.i
  %23 = load ptr, ptr %5, align 8, !tbaa !65
  %.not5.i.i.i.i1.i = icmp eq ptr %23, null
  br i1 %.not5.i.i.i.i1.i, label %_ZNSt10_HashtableIP11lean_objectSt4pairIKS1_S1_E16mi_stl_allocatorIS4_ENSt8__detail10_Select1stESt8equal_toIS1_ESt4hashIS1_ENS7_18_Mod_range_hashingENS7_20_Default_ranged_hashENS7_20_Prime_rehash_policyENS7_17_Hashtable_traitsILb0ELb0ELb1EEEE5clearEv.exit.i.i.i, label %.lr.ph.i.i.i.i2.i

.lr.ph.i.i.i.i2.i:                                ; preds = %_ZNSt13unordered_setIP11lean_objectN4lean20sharecommon_quick_fn8set_hashENS3_6set_eqE16mi_stl_allocatorIS1_EED2Ev.exit.i, %.lr.ph.i.i.i.i2.i
  %.06.i.i.i.i3.i = phi ptr [ %24, %.lr.ph.i.i.i.i2.i ], [ %23, %_ZNSt13unordered_setIP11lean_objectN4lean20sharecommon_quick_fn8set_hashENS3_6set_eqE16mi_stl_allocatorIS1_EED2Ev.exit.i ]
  %24 = load ptr, ptr %.06.i.i.i.i3.i, align 8, !tbaa !42
  call void @mi_free(ptr noundef nonnull %.06.i.i.i.i3.i) #20
  %.not.i.i.i.i4.i = icmp eq ptr %24, null
  br i1 %.not.i.i.i.i4.i, label %_ZNSt10_HashtableIP11lean_objectSt4pairIKS1_S1_E16mi_stl_allocatorIS4_ENSt8__detail10_Select1stESt8equal_toIS1_ESt4hashIS1_ENS7_18_Mod_range_hashingENS7_20_Default_ranged_hashENS7_20_Prime_rehash_policyENS7_17_Hashtable_traitsILb0ELb0ELb1EEEE5clearEv.exit.i.i.i, label %.lr.ph.i.i.i.i2.i, !llvm.loop !66

_ZNSt10_HashtableIP11lean_objectSt4pairIKS1_S1_E16mi_stl_allocatorIS4_ENSt8__detail10_Select1stESt8equal_toIS1_ESt4hashIS1_ENS7_18_Mod_range_hashingENS7_20_Default_ranged_hashENS7_20_Prime_rehash_policyENS7_17_Hashtable_traitsILb0ELb0ELb1EEEE5clearEv.exit.i.i.i: ; preds = %.lr.ph.i.i.i.i2.i, %_ZNSt13unordered_setIP11lean_objectN4lean20sharecommon_quick_fn8set_hashENS3_6set_eqE16mi_stl_allocatorIS1_EED2Ev.exit.i
  %25 = load ptr, ptr %2, align 8, !tbaa !45
  %26 = load i64, ptr %4, align 8, !tbaa !44
  %27 = shl i64 %26, 3
  call void @llvm.memset.p0.i64(ptr align 8 %25, i8 0, i64 %27, i1 false)
  call void @llvm.memset.p0.i64(ptr noundef nonnull align 8 dereferenceable(16) %5, i8 0, i64 16, i1 false)
  %28 = load ptr, ptr %2, align 8, !tbaa !45
  %29 = icmp eq ptr %28, %3
  br i1 %29, label %_ZN4lean20sharecommon_quick_fnD2Ev.exit, label %30

30:                                               ; preds = %_ZNSt10_HashtableIP11lean_objectSt4pairIKS1_S1_E16mi_stl_allocatorIS4_ENSt8__detail10_Select1stESt8equal_toIS1_ESt4hashIS1_ENS7_18_Mod_range_hashingENS7_20_Default_ranged_hashENS7_20_Prime_rehash_policyENS7_17_Hashtable_traitsILb0ELb0ELb1EEEE5clearEv.exit.i.i.i
  call void @mi_free(ptr noundef %28) #20
  br label %_ZN4lean20sharecommon_quick_fnD2Ev.exit

_ZN4lean20sharecommon_quick_fnD2Ev.exit:          ; preds = %_ZNSt10_HashtableIP11lean_objectSt4pairIKS1_S1_E16mi_stl_allocatorIS4_ENSt8__detail10_Select1stESt8equal_toIS1_ESt4hashIS1_ENS7_18_Mod_range_hashingENS7_20_Default_ranged_hashENS7_20_Prime_rehash_policyENS7_17_Hashtable_traitsILb0ELb0ELb1EEEE5clearEv.exit.i.i.i, %30
  call void @llvm.lifetime.end.p0(i64 120, ptr nonnull %2) #20
  ret ptr %14

31:                                               ; preds = %1
  %32 = landingpad { ptr, i32 }
          cleanup
  call void @_ZN4lean20sharecommon_quick_fnD2Ev(ptr noundef nonnull align 8 dereferenceable(113) %2) #20
  call void @llvm.lifetime.end.p0(i64 120, ptr nonnull %2) #20
  resume { ptr, i32 } %32
}